; Function Attrs: nounwind uwtable
define hidden void @luaC_runtilstate(ptr noundef %0, i32 noundef %1, i32 noundef %2) local_unnamed_addr #0 {
  %4 = getelementptr inbounds nuw i8, ptr %0, i64 24
  %5 = load ptr, ptr %4, align 8, !tbaa !4
  %6 = getelementptr inbounds nuw i8, ptr %5, i64 107
  %7 = load i8, ptr %6, align 1, !tbaa !20
  %8 = zext i8 %7 to i32
  %.not4 = icmp eq i32 %1, %8
  br i1 %.not4, label %._crit_edge, label %.lr.ph

.lr.ph:                                           ; preds = %3, %.lr.ph
  %9 = tail call fastcc i64 @singlestep(ptr noundef %0, i32 noundef %2)
  %10 = load i8, ptr %6, align 1, !tbaa !20
  %11 = zext i8 %10 to i32
  %.not = icmp eq i32 %1, %11
  br i1 %.not, label %._crit_edge, label %.lr.ph

._crit_edge:                                      ; preds = %.lr.ph, %3
  ret void
}